Certificate:
    Data:
        Version: 3 (0x2)
        Serial Number: 1285534736 (0x4c9fb410)
        Signature Algorithm: sha256WithRSAEncryption
        Issuer: CN=Easy-RSA CA
        Validity
            Not Before: Jan 15 02:32:53 2024 GMT
            Not After : Apr 19 02:32:53 2026 GMT
        Subject: CN=lass
        Subject Public Key Info:
            Public Key Algorithm: rsaEncryption
                Public-Key: (2048 bit)
                Modulus:
                    00:94:4a:6e:67:e2:69:62:5b:bd:e4:f8:a5:08:7a:
                    76:90:29:0d:21:06:fc:df:8e:19:51:52:19:73:f6:
                    89:0e:58:9f:04:10:a1:fb:f0:6d:e0:00:e6:26:ef:
                    ce:18:8c:2a:8e:58:86:ec:ba:af:31:2c:e3:6e:e4:
                    ec:b6:a5:10:76:1f:16:fb:05:f3:41:d3:d1:46:36:
                    2b:18:dd:87:d2:9a:23:ae:71:d4:9b:ff:dc:d7:f2:
                    40:0b:4c:ed:fd:e4:91:cb:3f:12:25:9d:99:0b:ce:
                    8a:03:f6:d6:aa:3f:b9:dd:b6:ba:72:34:f3:a6:5a:
                    cb:c4:3f:31:04:ec:76:bc:8a:f7:fe:fd:fc:e7:00:
                    19:61:5f:28:46:d3:3d:da:14:16:31:2c:0d:43:e8:
                    f7:50:53:3a:54:76:8a:4e:38:65:aa:e0:c8:2f:16:
                    c9:f4:1c:b7:40:d2:79:34:08:a4:6e:f6:e2:68:5c:
                    de:35:a0:9a:2f:02:1f:c9:c9:7b:ee:7a:40:2b:68:
                    b2:ac:cc:86:40:6f:da:ad:ee:67:5d:ca:98:35:1e:
                    52:a4:97:1c:b4:09:d7:c3:3c:9a:3a:a5:c3:83:71:
                    4e:2b:70:64:21:7a:d9:5e:35:45:e8:db:b6:2f:a3:
                    2b:83:cd:f6:c5:3b:5d:0d:71:4c:3e:ab:4b:4a:9f:
                    8c:49
                Exponent: 65537 (0x10001)
        X509v3 extensions:
            X509v3 Basic Constraints: 
                CA:FALSE
            X509v3 Subject Key Identifier: 
                E5:27:08:CD:AD:94:9C:27:3D:76:2B:D5:4A:CD:97:ED:6F:4F:28:CD
            X509v3 Authority Key Identifier: 
                keyid:EE:2E:E4:C5:33:6B:34:2B:E0:07:28:08:99:9B:59:42:50:11:06:AE
                DirName:/CN=Easy-RSA CA
                serial:37:59:9B:5C:51:58:C7:E9:64:F6:A6:5C:CF:C4:19:4F:08:1D:64:4C
            X509v3 Extended Key Usage: 
                TLS Web Client Authentication
            X509v3 Key Usage: 
                Digital Signature
    Signature Algorithm: sha256WithRSAEncryption
    Signature Value:
        03:41:1c:db:82:66:40:da:f2:e7:cd:3f:70:c3:78:08:c2:d7:
        52:47:20:38:7f:01:a1:64:18:2e:01:dc:ee:3f:6e:d5:59:61:
        79:26:50:3b:73:cb:65:0e:a2:0e:8f:96:4d:1b:55:37:3c:d5:
        b6:8d:65:59:5d:22:3c:92:f3:7f:27:4f:14:5d:6b:c2:73:f2:
        3d:51:45:ec:4b:bf:a8:5a:cb:1e:b0:27:76:d3:07:71:2c:0f:
        c1:8a:e1:4f:4e:e5:29:24:7a:7f:f4:55:b3:db:14:48:12:5b:
        fa:3f:57:6d:30:ca:e2:b9:ab:6f:fb:63:1a:f5:d9:59:21:a5:
        ae:10:99:d9:1c:6d:be:dd:89:27:ca:0f:56:d9:57:d7:b3:b0:
        95:43:f2:2c:5c:81:38:3b:4c:9c:a4:93:69:f9:c9:7e:71:05:
        03:e4:e3:3a:90:76:2b:18:5a:3a:54:d1:38:3e:27:26:8c:2b:
        31:cc:f3:e0:49:bc:a5:f6:35:13:2c:92:7e:1b:d8:c0:87:28:
        38:94:b0:98:36:f5:49:64:95:3f:16:bc:79:44:a1:cd:dd:f3:
        3a:5a:7e:25:a7:55:e9:be:7d:f5:6b:0f:75:d2:60:0d:79:30:
        55:20:b5:e9:35:22:93:70:e2:07:c3:25:81:65:7d:a6:e1:a2:
        57:07:51:bf
-----BEGIN CERTIFICATE-----
MIIDRjCCAi6gAwIBAgIETJ+0EDANBgkqhkiG9w0BAQsFADAWMRQwEgYDVQQDDAtF
YXN5LVJTQSBDQTAeFw0yNDAxMTUwMjMyNTNaFw0yNjA0MTkwMjMyNTNaMA8xDTAL
BgNVBAMMBGxhc3MwggEiMA0GCSqGSIb3DQEBAQUAA4IBDwAwggEKAoIBAQCUSm5n
4mliW73k+KUIenaQKQ0hBvzfjhlRUhlz9okOWJ8EEKH78G3gAOYm784YjCqOWIbs
uq8xLONu5Oy2pRB2Hxb7BfNB09FGNisY3YfSmiOucdSb/9zX8kALTO395JHLPxIl
nZkLzooD9taqP7ndtrpyNPOmWsvEPzEE7Ha8ivf+/fznABlhXyhG0z3aFBYxLA1D
6PdQUzpUdopOOGWq4MgvFsn0HLdA0nk0CKRu9uJoXN41oJovAh/JyXvuekAraLKs
zIZAb9qt7mddypg1HlKklxy0CdfDPJo6pcODcU4rcGQhetleNUXo27YvoyuDzfbF
O10NcUw+q0tKn4xJAgMBAAGjgaIwgZ8wCQYDVR0TBAIwADAdBgNVHQ4EFgQU5ScI
za2UnCc9divVSs2X7W9PKM0wUQYDVR0jBEowSIAU7i7kxTNrNCvgBygImZtZQlAR
Bq6hGqQYMBYxFDASBgNVBAMMC0Vhc3ktUlNBIENBghQ3WZtcUVjH6WT2plzPxBlP
CB1kTDATBgNVHSUEDDAKBggrBgEFBQcDAjALBgNVHQ8EBAMCB4AwDQYJKoZIhvcN
AQELBQADggEBAANBHNuCZkDa8ufNP3DDeAjC11JHIDh/AaFkGC4B3O4/btVZYXkm
UDtzy2UOog6Plk0bVTc81baNZVldIjyS838nTxRda8Jz8j1RRexLv6hayx6wJ3bT
B3EsD8GK4U9O5Skken/0VbPbFEgSW/o/V20wyuK5q2/7Yxr12Vkhpa4Qmdkcbb7d
iSfKD1bZV9ezsJVD8ixcgTg7TJykk2n5yX5xBQPk4zqQdisYWjpU0Tg+JyaMKzHM
8+BJvKX2NRMskn4b2MCHKDiUsJg29UlklT8WvHlEoc3d8zpafiWnVem+ffVrD3XS
YA15MFUgtek1IpNw4gfDJYFlfabholcHUb8=
-----END CERTIFICATE-----
