Certificate:
    Data:
        Version: 3 (0x2)
        Serial Number: 2283045208 (0x88148158)
        Signature Algorithm: sha256WithRSAEncryption
        Issuer: CN=Easy-RSA CA
        Validity
            Not Before: Jan 14 17:29:26 2024 GMT
            Not After : Apr 18 17:29:26 2026 GMT
        Subject: CN=server
        Subject Public Key Info:
            Public Key Algorithm: rsaEncryption
                Public-Key: (2048 bit)
                Modulus:
                    00:c6:55:30:54:de:c8:de:0f:c1:cd:08:43:f6:38:
                    d9:53:46:78:63:06:4a:ed:3a:4e:8d:81:6a:74:23:
                    d7:eb:cd:e2:68:63:5a:ef:a0:46:34:b8:8d:25:a8:
                    ca:cb:ad:92:d1:ee:92:be:cc:a5:89:a9:19:ea:9c:
                    3c:ba:95:1b:74:37:b7:9b:8d:6c:f7:66:99:46:bf:
                    f2:08:49:fa:59:8d:0c:96:fa:66:b1:43:eb:59:03:
                    7b:20:4e:9b:39:21:5d:7a:da:43:e4:7a:9b:3b:76:
                    36:b0:c4:ed:89:6e:85:75:30:5a:96:66:78:e0:5d:
                    a8:60:ce:76:68:d4:23:a7:9e:e9:a2:be:81:15:28:
                    4c:00:1a:ce:83:cb:e5:a7:06:6d:63:22:80:0e:6c:
                    8d:da:57:a4:1f:4b:a3:28:ae:2e:be:7f:7b:34:4a:
                    a5:b0:86:cc:8a:42:af:51:5c:8b:81:80:ab:d6:32:
                    54:03:e4:25:2c:a2:a2:f8:13:06:51:33:75:06:2b:
                    a6:8e:80:c1:2b:27:15:12:cb:c2:61:da:e2:47:d0:
                    9e:ea:29:29:b2:c5:64:f0:01:f5:dd:95:6a:6a:73:
                    cb:a1:ab:af:03:42:3a:eb:d5:68:ff:ce:d5:b2:32:
                    4f:27:46:97:1a:2f:f9:04:cf:d7:37:67:8a:f9:c1:
                    a4:8f
                Exponent: 65537 (0x10001)
        X509v3 extensions:
            X509v3 Basic Constraints: 
                CA:FALSE
            X509v3 Subject Key Identifier: 
                FF:D8:31:9F:74:11:A1:39:28:EA:9F:C2:6F:C8:80:57:13:F6:B3:68
            X509v3 Authority Key Identifier: 
                keyid:EE:2E:E4:C5:33:6B:34:2B:E0:07:28:08:99:9B:59:42:50:11:06:AE
                DirName:/CN=Easy-RSA CA
                serial:37:59:9B:5C:51:58:C7:E9:64:F6:A6:5C:CF:C4:19:4F:08:1D:64:4C
            X509v3 Extended Key Usage: 
                TLS Web Server Authentication
            X509v3 Key Usage: 
                Digital Signature, Key Encipherment
            X509v3 Subject Alternative Name: 
                DNS:server
    Signature Algorithm: sha256WithRSAEncryption
    Signature Value:
        a1:ff:64:b8:62:b1:2d:44:3b:34:22:51:d2:ff:20:7c:68:37:
        f9:b2:f4:0b:94:5f:d3:de:98:d7:20:79:c4:e3:ed:71:39:0d:
        8e:6e:49:f8:a6:43:b7:ad:37:e6:d9:a3:cf:dc:59:93:43:0e:
        4d:d9:4d:ed:29:e2:19:23:32:8e:eb:e1:4a:c2:47:04:0c:76:
        9a:6c:22:e7:2c:cf:51:97:8e:c1:15:82:b9:99:50:ce:09:fd:
        8b:2d:f8:4a:44:21:30:cf:d8:5c:e8:5e:06:b7:c4:19:3f:44:
        d8:cb:a0:b1:7a:36:0f:5e:c3:1d:a6:f1:89:ea:6a:52:60:08:
        d1:88:e4:31:0c:d5:e6:f2:58:58:03:a1:ce:1c:70:bc:41:e9:
        1a:90:9f:a6:96:ed:cd:6c:dc:8e:95:f8:eb:f8:86:eb:5f:51:
        ff:82:71:62:54:a7:3a:6d:a6:f3:f3:58:5b:e0:43:2f:f0:9b:
        62:b4:be:fc:0f:70:fd:28:73:13:f3:28:f2:1c:77:a3:5d:8e:
        bf:1b:60:24:da:a1:58:40:ae:94:7c:33:b9:9e:5b:06:fe:bf:
        e7:fb:fa:ab:3d:b8:ab:a0:a8:86:38:9e:0b:91:c7:c0:8e:e2:
        7f:4d:e2:91:a4:39:8f:79:86:52:de:f3:63:f9:0b:fb:ca:47:
        81:f0:9d:44
-----BEGIN CERTIFICATE-----
MIIDXDCCAkSgAwIBAgIFAIgUgVgwDQYJKoZIhvcNAQELBQAwFjEUMBIGA1UEAwwL
RWFzeS1SU0EgQ0EwHhcNMjQwMTE0MTcyOTI2WhcNMjYwNDE4MTcyOTI2WjARMQ8w
DQYDVQQDDAZzZXJ2ZXIwggEiMA0GCSqGSIb3DQEBAQUAA4IBDwAwggEKAoIBAQDG
VTBU3sjeD8HNCEP2ONlTRnhjBkrtOk6NgWp0I9frzeJoY1rvoEY0uI0lqMrLrZLR
7pK+zKWJqRnqnDy6lRt0N7ebjWz3ZplGv/IISfpZjQyW+maxQ+tZA3sgTps5IV16
2kPkeps7djawxO2JboV1MFqWZnjgXahgznZo1COnnumivoEVKEwAGs6Dy+WnBm1j
IoAObI3aV6QfS6Mori6+f3s0SqWwhsyKQq9RXIuBgKvWMlQD5CUsoqL4EwZRM3UG
K6aOgMErJxUSy8Jh2uJH0J7qKSmyxWTwAfXdlWpqc8uhq68DQjrr1Wj/ztWyMk8n
RpcaL/kEz9c3Z4r5waSPAgMBAAGjgbUwgbIwCQYDVR0TBAIwADAdBgNVHQ4EFgQU
/9gxn3QRoTko6p/Cb8iAVxP2s2gwUQYDVR0jBEowSIAU7i7kxTNrNCvgBygImZtZ
QlARBq6hGqQYMBYxFDASBgNVBAMMC0Vhc3ktUlNBIENBghQ3WZtcUVjH6WT2plzP
xBlPCB1kTDATBgNVHSUEDDAKBggrBgEFBQcDATALBgNVHQ8EBAMCBaAwEQYDVR0R
BAowCIIGc2VydmVyMA0GCSqGSIb3DQEBCwUAA4IBAQCh/2S4YrEtRDs0IlHS/yB8
aDf5svQLlF/T3pjXIHnE4+1xOQ2Obkn4pkO3rTfm2aPP3FmTQw5N2U3tKeIZIzKO
6+FKwkcEDHaabCLnLM9Rl47BFYK5mVDOCf2LLfhKRCEwz9hc6F4Gt8QZP0TYy6Cx
ejYPXsMdpvGJ6mpSYAjRiOQxDNXm8lhYA6HOHHC8QekakJ+mlu3NbNyOlfjr+Ibr
X1H/gnFiVKc6babz81hb4EMv8JtitL78D3D9KHMT8yjyHHejXY6/G2Ak2qFYQK6U
fDO5nlsG/r/n+/qrPbiroKiGOJ4LkcfAjuJ/TeKRpDmPeYZS3vNj+Qv7ykeB8J1E
-----END CERTIFICATE-----
